; Function Attrs: mustprogress nounwind uwtable
define dso_local void @_ZN4llvm16TargetIRAnalysis3runERKNS_8FunctionERNS_15AnalysisManagerIS1_JEEE(ptr dead_on_unwind noalias writable sret(%"class.llvm::TargetTransformInfo") align 8 %0, ptr noundef nonnull align 8 dereferenceable(32) %1, ptr noundef nonnull align 8 dereferenceable(136) %2, ptr nocapture noundef nonnull readnone align 8 dereferenceable(72) %3) local_unnamed_addr #0 align 2 {
  %5 = getelementptr inbounds nuw i8, ptr %1, i64 16
  %6 = load ptr, ptr %5, align 8, !noalias !35
  %.not.i.i = icmp eq ptr %6, null
  br i1 %.not.i.i, label %7, label %_ZNKSt8functionIFN4llvm19TargetTransformInfoERKNS0_8FunctionEEEclES4_.exit

7:                                                ; preds = %4
  tail call void @_ZSt25__throw_bad_function_callv() #29, !noalias !35
  unreachable

_ZNKSt8functionIFN4llvm19TargetTransformInfoERKNS0_8FunctionEEEclES4_.exit: ; preds = %4
  %8 = getelementptr inbounds nuw i8, ptr %1, i64 24
  %9 = load ptr, ptr %8, align 8, !noalias !35
  tail call void %9(ptr dead_on_unwind writable sret(%"class.llvm::TargetTransformInfo") align 8 %0, ptr noundef nonnull align 8 dereferenceable(16) %1, ptr noundef nonnull align 8 dereferenceable(136) %2) #25
  ret void
}